; ModuleID = '25/969.cpp'
source_filename = "25/969.cpp"
target datalayout = "e-m:e-p270:32:32-p271:32:32-p272:64:64-i64:64-f80:128-n8:16:32:64-S128"
target triple = "x86_64-pc-linux-gnu"

%"class.std::ios_base::Init" = type { i8 }
%"class.std::basic_istream" = type { i32 (...)**, i64, %"class.std::basic_ios" }
%"class.std::basic_ios" = type { %"class.std::ios_base", %"class.std::basic_ostream"*, i8, i8, %"class.std::basic_streambuf"*, %"class.std::ctype"*, %"class.std::num_put"*, %"class.std::num_get"* }
%"class.std::ios_base" = type { i32 (...)**, i64, i64, i32, i32, i32, %"struct.std::ios_base::_Callback_list"*, %"struct.std::ios_base::_Words", [8 x %"struct.std::ios_base::_Words"], i32, %"struct.std::ios_base::_Words"*, %"class.std::locale" }
%"struct.std::ios_base::_Callback_list" = type { %"struct.std::ios_base::_Callback_list"*, void (i32, %"class.std::ios_base"*, i32)*, i32, i32 }
%"struct.std::ios_base::_Words" = type { i8*, i64 }
%"class.std::locale" = type { %"class.std::locale::_Impl"* }
%"class.std::locale::_Impl" = type { i32, %"class.std::locale::facet"**, i64, %"class.std::locale::facet"**, i8** }
%"class.std::locale::facet" = type <{ i32 (...)**, i32, [4 x i8] }>
%"class.std::basic_ostream" = type { i32 (...)**, %"class.std::basic_ios" }
%"class.std::basic_streambuf" = type { i32 (...)**, i8*, i8*, i8*, i8*, i8*, i8*, %"class.std::locale" }
%"class.std::ctype" = type <{ %"class.std::locale::facet.base", [4 x i8], %struct.__locale_struct*, i8, [7 x i8], i32*, i32*, i16*, i8, [256 x i8], [256 x i8], i8, [6 x i8] }>
%"class.std::locale::facet.base" = type <{ i32 (...)**, i32 }>
%struct.__locale_struct = type { [13 x %struct.__locale_data*], i16*, i32*, i32*, [13 x i8*] }
%struct.__locale_data = type opaque
%"class.std::num_put" = type { %"class.std::locale::facet.base", [4 x i8] }
%"class.std::num_get" = type { %"class.std::locale::facet.base", [4 x i8] }

@_ZStL8__ioinit = internal global %"class.std::ios_base::Init" zeroinitializer, align 1
@__dso_handle = external hidden global i8
@_ZSt3cin = external dso_local global %"class.std::basic_istream", align 8
@_ZSt4cout = external dso_local global %"class.std::basic_ostream", align 8
@llvm.global_ctors = appending global [1 x { i32, void ()*, i8* }] [{ i32, void ()*, i8* } { i32 65535, void ()* @_GLOBAL__sub_I_969.cpp, i8* null }]

; Function Attrs: noinline uwtable
define internal void @__cxx_global_var_init() #0 section ".text.startup" {
  call void @_ZNSt8ios_base4InitC1Ev(%"class.std::ios_base::Init"* @_ZStL8__ioinit)
  %1 = call i32 @__cxa_atexit(void (i8*)* bitcast (void (%"class.std::ios_base::Init"*)* @_ZNSt8ios_base4InitD1Ev to void (i8*)*), i8* getelementptr inbounds (%"class.std::ios_base::Init", %"class.std::ios_base::Init"* @_ZStL8__ioinit, i32 0, i32 0), i8* @__dso_handle) #3
  ret void
}

declare dso_local void @_ZNSt8ios_base4InitC1Ev(%"class.std::ios_base::Init"*) unnamed_addr #1

; Function Attrs: nounwind
declare dso_local void @_ZNSt8ios_base4InitD1Ev(%"class.std::ios_base::Init"*) unnamed_addr #2

; Function Attrs: nounwind
declare dso_local i32 @__cxa_atexit(void (i8*)*, i8*, i8*) #3

; Function Attrs: noinline norecurse uwtable
define dso_local i32 @main() #4 {
  %1 = alloca i32, align 4
  %2 = alloca i32, align 4
  %3 = alloca i32, align 4
  %4 = alloca i32, align 4
  %5 = alloca i32, align 4
  %6 = alloca [110 x i8], align 16
  %7 = alloca i32, align 4
  %8 = alloca i32, align 4
  %9 = alloca i32, align 4
  %10 = alloca i32, align 4
  %11 = alloca i32, align 4
  %12 = alloca i32, align 4
  store i32 0, i32* %1, align 4
  store i32 0, i32* %5, align 4
  store i32 1, i32* %7, align 4
  br label %13

13:                                               ; preds = %20, %0
  %14 = load i32, i32* %7, align 4
  %15 = icmp sle i32 %14, 109
  br i1 %15, label %16, label %23

16:                                               ; preds = %13
  %17 = load i32, i32* %7, align 4
  %18 = sext i32 %17 to i64
  %19 = getelementptr inbounds [110 x i8], [110 x i8]* %6, i64 0, i64 %18
  store i8 42, i8* %19, align 1
  br label %20

20:                                               ; preds = %16
  %21 = load i32, i32* %7, align 4
  %22 = add nsw i32 %21, 1
  store i32 %22, i32* %7, align 4
  br label %13

23:                                               ; preds = %13
  %24 = call dereferenceable(280) %"class.std::basic_istream"* @_ZNSirsERi(%"class.std::basic_istream"* @_ZSt3cin, i32* dereferenceable(4) %2)
  store i32 1, i32* %8, align 4
  %25 = getelementptr inbounds [110 x i8], [110 x i8]* %6, i64 0, i64 1
  store i8 50, i8* %25, align 1
  %26 = load i32, i32* %2, align 4
  %27 = icmp eq i32 %26, 1
  br i1 %27, label %28, label %31

28:                                               ; preds = %23
  %29 = call dereferenceable(272) %"class.std::basic_ostream"* @_ZNSolsEi(%"class.std::basic_ostream"* @_ZSt4cout, i32 2)
  %30 = call dereferenceable(272) %"class.std::basic_ostream"* @_ZNSolsEPFRSoS_E(%"class.std::basic_ostream"* %29, %"class.std::basic_ostream"* (%"class.std::basic_ostream"*)* @_ZSt4endlIcSt11char_traitsIcEERSt13basic_ostreamIT_T0_ES6_)
  br label %122

31:                                               ; preds = %23
  %32 = load i32, i32* %2, align 4
  %33 = icmp eq i32 %32, 0
  br i1 %33, label %34, label %36

34:                                               ; preds = %31
  %35 = call dereferenceable(272) %"class.std::basic_ostream"* @_ZNSolsEi(%"class.std::basic_ostream"* @_ZSt4cout, i32 1)
  br label %121

36:                                               ; preds = %31
  store i32 1, i32* %10, align 4
  br label %37

37:                                               ; preds = %96, %36
  %38 = load i32, i32* %10, align 4
  %39 = load i32, i32* %2, align 4
  %40 = sub nsw i32 %39, 1
  %41 = icmp sle i32 %38, %40
  br i1 %41, label %42, label %99

42:                                               ; preds = %37
  %43 = load i32, i32* %8, align 4
  store i32 %43, i32* %9, align 4
  store i32 1, i32* %11, align 4
  br label %44

44:                                               ; preds = %92, %42
  %45 = load i32, i32* %11, align 4
  %46 = load i32, i32* %9, align 4
  %47 = icmp sle i32 %45, %46
  br i1 %47, label %48, label %95

48:                                               ; preds = %44
  %49 = load i32, i32* %11, align 4
  %50 = sext i32 %49 to i64
  %51 = getelementptr inbounds [110 x i8], [110 x i8]* %6, i64 0, i64 %50
  %52 = load i8, i8* %51, align 1
  %53 = sext i8 %52 to i32
  %54 = sub nsw i32 %53, 48
  store i32 %54, i32* %3, align 4
  %55 = load i32, i32* %3, align 4
  %56 = mul nsw i32 %55, 2
  %57 = load i32, i32* %5, align 4
  %58 = add nsw i32 %56, %57
  store i32 %58, i32* %3, align 4
  store i32 0, i32* %5, align 4
  %59 = load i32, i32* %3, align 4
  %60 = icmp slt i32 %59, 10
  br i1 %60, label %61, label %68

61:                                               ; preds = %48
  %62 = load i32, i32* %3, align 4
  %63 = add nsw i32 %62, 48
  %64 = trunc i32 %63 to i8
  %65 = load i32, i32* %11, align 4
  %66 = sext i32 %65 to i64
  %67 = getelementptr inbounds [110 x i8], [110 x i8]* %6, i64 0, i64 %66
  store i8 %64, i8* %67, align 1
  br label %91

68:                                               ; preds = %48
  %69 = load i32, i32* %3, align 4
  %70 = add nsw i32 %69, 38
  %71 = trunc i32 %70 to i8
  %72 = load i32, i32* %11, align 4
  %73 = sext i32 %72 to i64
  %74 = getelementptr inbounds [110 x i8], [110 x i8]* %6, i64 0, i64 %73
  store i8 %71, i8* %74, align 1
  %75 = load i32, i32* %11, align 4
  %76 = add nsw i32 %75, 1
  %77 = sext i32 %76 to i64
  %78 = getelementptr inbounds [110 x i8], [110 x i8]* %6, i64 0, i64 %77
  %79 = load i8, i8* %78, align 1
  %80 = sext i8 %79 to i32
  %81 = icmp eq i32 %80, 42
  br i1 %81, label %82, label %89

82:                                               ; preds = %68
  %83 = load i32, i32* %11, align 4
  %84 = add nsw i32 %83, 1
  %85 = sext i32 %84 to i64
  %86 = getelementptr inbounds [110 x i8], [110 x i8]* %6, i64 0, i64 %85
  store i8 49, i8* %86, align 1
  %87 = load i32, i32* %8, align 4
  %88 = add nsw i32 %87, 1
  store i32 %88, i32* %8, align 4
  br label %90

89:                                               ; preds = %68
  store i32 1, i32* %5, align 4
  br label %90

90:                                               ; preds = %89, %82
  br label %91

91:                                               ; preds = %90, %61
  br label %92

92:                                               ; preds = %91
  %93 = load i32, i32* %11, align 4
  %94 = add nsw i32 %93, 1
  store i32 %94, i32* %11, align 4
  br label %44

95:                                               ; preds = %44
  br label %96

96:                                               ; preds = %95
  %97 = load i32, i32* %10, align 4
  %98 = add nsw i32 %97, 1
  store i32 %98, i32* %10, align 4
  br label %37

99:                                               ; preds = %37
  store i32 109, i32* %12, align 4
  br label %100

100:                                              ; preds = %117, %99
  %101 = load i32, i32* %12, align 4
  %102 = icmp sge i32 %101, 1
  br i1 %102, label %103, label %120

103:                                              ; preds = %100
  %104 = load i32, i32* %12, align 4
  %105 = sext i32 %104 to i64
  %106 = getelementptr inbounds [110 x i8], [110 x i8]* %6, i64 0, i64 %105
  %107 = load i8, i8* %106, align 1
  %108 = sext i8 %107 to i32
  %109 = icmp ne i32 %108, 42
  br i1 %109, label %110, label %116

110:                                              ; preds = %103
  %111 = load i32, i32* %12, align 4
  %112 = sext i32 %111 to i64
  %113 = getelementptr inbounds [110 x i8], [110 x i8]* %6, i64 0, i64 %112
  %114 = load i8, i8* %113, align 1
  %115 = call dereferenceable(272) %"class.std::basic_ostream"* @_ZStlsISt11char_traitsIcEERSt13basic_ostreamIcT_ES5_c(%"class.std::basic_ostream"* dereferenceable(272) @_ZSt4cout, i8 signext %114)
  br label %116

116:                                              ; preds = %110, %103
  br label %117

117:                                              ; preds = %116
  %118 = load i32, i32* %12, align 4
  %119 = add nsw i32 %118, -1
  store i32 %119, i32* %12, align 4
  br label %100

120:                                              ; preds = %100
  br label %121

121:                                              ; preds = %120, %34
  br label %122

122:                                              ; preds = %121, %28
  ret i32 0
}

declare dso_local dereferenceable(280) %"class.std::basic_istream"* @_ZNSirsERi(%"class.std::basic_istream"*, i32* dereferenceable(4)) #1

declare dso_local dereferenceable(272) %"class.std::basic_ostream"* @_ZNSolsEi(%"class.std::basic_ostream"*, i32) #1

declare dso_local dereferenceable(272) %"class.std::basic_ostream"* @_ZNSolsEPFRSoS_E(%"class.std::basic_ostream"*, %"class.std::basic_ostream"* (%"class.std::basic_ostream"*)*) #1

declare dso_local dereferenceable(272) %"class.std::basic_ostream"* @_ZSt4endlIcSt11char_traitsIcEERSt13basic_ostreamIT_T0_ES6_(%"class.std::basic_ostream"* dereferenceable(272)) #1

declare dso_local dereferenceable(272) %"class.std::basic_ostream"* @_ZStlsISt11char_traitsIcEERSt13basic_ostreamIcT_ES5_c(%"class.std::basic_ostream"* dereferenceable(272), i8 signext) #1

; Function Attrs: noinline uwtable
define internal void @_GLOBAL__sub_I_969.cpp() #0 section ".text.startup" {
  call void @__cxx_global_var_init()
  ret void
}


!llvm.module.flags = !{!0}
!llvm.ident = !{!1}

!0 = !{i32 1, !"wchar_size", i32 4}
!1 = !{!"clang version 10.0.0-4ubuntu1 "}
